; Function Attrs: mustprogress uwtable
define noundef i32 @_ZNK8QuantLib30AndreasenHugeVolatilityAdapter14settlementDaysEv(ptr nocapture noundef nonnull readonly align 8 dereferenceable(96) %this) unnamed_addr #7 align 2 {
entry:
  %volInterpl_ = getelementptr inbounds nuw i8, ptr %this, i64 80
  %0 = load ptr, ptr %volInterpl_, align 8, !tbaa !57
  %cmp.not.i = icmp eq ptr %0, null
  br i1 %cmp.not.i, label %cond.false.i, label %_ZNK5boost10shared_ptrIN8QuantLib30AndreasenHugeVolatilityInterplEEptEv.exit, !prof !58

cond.false.i:                                     ; preds = %entry
  tail call void @_ZN5boost16assertion_failedEPKcS1_S1_l(ptr noundef nonnull @.str.9, ptr noundef nonnull @__PRETTY_FUNCTION__._ZNK5boost10shared_ptrIN8QuantLib30AndreasenHugeVolatilityInterplEEptEv, ptr noundef nonnull @.str.10, i64 noundef 784)
  %.pre.i = load ptr, ptr %volInterpl_, align 8, !tbaa !57
  br label %_ZNK5boost10shared_ptrIN8QuantLib30AndreasenHugeVolatilityInterplEEptEv.exit

_ZNK5boost10shared_ptrIN8QuantLib30AndreasenHugeVolatilityInterplEEptEv.exit: ; preds = %entry, %cond.false.i
  %1 = phi ptr [ %0, %entry ], [ %.pre.i, %cond.false.i ]
  %call2 = tail call noundef nonnull align 8 dereferenceable(16) ptr @_ZNK8QuantLib30AndreasenHugeVolatilityInterpl12riskFreeRateEv(ptr noundef nonnull align 8 dereferenceable(488) %1)
  %call3 = tail call noundef nonnull align 8 dereferenceable(16) ptr @_ZNK8QuantLib6HandleINS_18YieldTermStructureEEptEv(ptr noundef nonnull align 8 dereferenceable(16) %call2)
  %2 = load ptr, ptr %call3, align 8, !tbaa !59
  %cmp.not.i1 = icmp eq ptr %2, null
  br i1 %cmp.not.i1, label %cond.false.i2, label %_ZNK5boost10shared_ptrIN8QuantLib18YieldTermStructureEEptEv.exit, !prof !58

cond.false.i2:                                    ; preds = %_ZNK5boost10shared_ptrIN8QuantLib30AndreasenHugeVolatilityInterplEEptEv.exit
  tail call void @_ZN5boost16assertion_failedEPKcS1_S1_l(ptr noundef nonnull @.str.9, ptr noundef nonnull @__PRETTY_FUNCTION__._ZNK5boost10shared_ptrIN8QuantLib18YieldTermStructureEEptEv, ptr noundef nonnull @.str.10, i64 noundef 784)
  %.pre.i3 = load ptr, ptr %call3, align 8, !tbaa !59
  br label %_ZNK5boost10shared_ptrIN8QuantLib18YieldTermStructureEEptEv.exit

_ZNK5boost10shared_ptrIN8QuantLib18YieldTermStructureEEptEv.exit: ; preds = %_ZNK5boost10shared_ptrIN8QuantLib30AndreasenHugeVolatilityInterplEEptEv.exit, %cond.false.i2
  %3 = phi ptr [ %2, %_ZNK5boost10shared_ptrIN8QuantLib30AndreasenHugeVolatilityInterplEEptEv.exit ], [ %.pre.i3, %cond.false.i2 ]
  %vtable = load ptr, ptr %3, align 8, !tbaa !35
  %vfn = getelementptr inbounds i8, ptr %vtable, i64 56
  %4 = load ptr, ptr %vfn, align 8
  %call5 = tail call noundef i32 %4(ptr noundef nonnull align 8 dereferenceable(64) %3)
  ret i32 %call5
}